; Function Attrs: mustprogress uwtable
define internal noundef zeroext i1 @_ZN32pxrInternal_v0_24__pxrReserved__12_GLOBAL__N_141Hd_PrefixingSceneIndexPathArrayDataSource37GetContributingSampleTimesForIntervalEffPSt6vectorIfSaIfEE(ptr nocapture noundef nonnull readonly align 8 dereferenceable(32) %0, float noundef %1, float noundef %2, ptr noundef %3) unnamed_addr #0 align 2 {
  %5 = getelementptr inbounds nuw i8, ptr %0, i64 16
  %6 = load ptr, ptr %5, align 8
  %.not = icmp eq ptr %6, null
  br i1 %.not, label %12, label %7

7:                                                ; preds = %4
  %8 = load ptr, ptr %6, align 8
  %9 = getelementptr inbounds i8, ptr %8, i64 24
  %10 = load ptr, ptr %9, align 8
  %11 = tail call noundef zeroext i1 %10(ptr noundef nonnull align 8 dereferenceable(8) %6, float noundef %1, float noundef %2, ptr noundef %3)
  br label %12

12:                                               ; preds = %4, %7
  %.0 = phi i1 [ %11, %7 ], [ false, %4 ]
  ret i1 %.0
}